; Function Attrs: mustprogress nofree norecurse nosync nounwind willreturn memory(read, inaccessiblemem: none) uwtable
define hidden noundef zeroext i1 @_ZNK4goal14is_decided_satEv(ptr noundef nonnull readonly align 8 captures(none) dereferenceable(124) %0) local_unnamed_addr #15 align 2 {
  %2 = getelementptr inbounds nuw i8, ptr %0, i64 72
  %3 = load ptr, ptr %2, align 8, !tbaa !15
  %4 = icmp eq ptr %3, null
  br i1 %4, label %_ZNK4goal4sizeEv.exit.thread, label %.preheader.i.i.i

.preheader.i.i.i:                                 ; preds = %1, %7
  %.0.i.i.i = phi ptr [ %9, %7 ], [ %3, %1 ]
  %5 = load i32, ptr %.0.i.i.i, align 8
  %6 = lshr i32 %5, 30
  switch i32 %6, label %default.unreachable [
    i32 0, label %7
    i32 1, label %10
    i32 2, label %14
    i32 3, label %18
  ]

7:                                                ; preds = %.preheader.i.i.i
  %8 = getelementptr inbounds nuw i8, ptr %.0.i.i.i, i64 16
  %9 = load ptr, ptr %8, align 8, !tbaa !14
  br label %.preheader.i.i.i, !llvm.loop !154

10:                                               ; preds = %.preheader.i.i.i
  %11 = getelementptr inbounds nuw i8, ptr %.0.i.i.i, i64 4
  %12 = load i32, ptr %11, align 4, !tbaa !14
  %13 = add i32 %12, 1
  br label %_ZNK4goal4sizeEv.exit

14:                                               ; preds = %.preheader.i.i.i
  %15 = getelementptr inbounds nuw i8, ptr %.0.i.i.i, i64 4
  %16 = load i32, ptr %15, align 4, !tbaa !14
  %17 = add i32 %16, -1
  br label %_ZNK4goal4sizeEv.exit

18:                                               ; preds = %.preheader.i.i.i
  %19 = getelementptr inbounds nuw i8, ptr %.0.i.i.i, i64 4
  %20 = load i32, ptr %19, align 4, !tbaa !14
  br label %_ZNK4goal4sizeEv.exit

default.unreachable:                              ; preds = %.preheader.i.i.i
  unreachable

_ZNK4goal4sizeEv.exit:                            ; preds = %10, %14, %18
  %.07.i.i.i = phi i32 [ %20, %18 ], [ %17, %14 ], [ %13, %10 ]
  %21 = icmp eq i32 %.07.i.i.i, 0
  br i1 %21, label %_ZNK4goal4sizeEv.exit.thread, label %26

_ZNK4goal4sizeEv.exit.thread:                     ; preds = %1, %_ZNK4goal4sizeEv.exit
  %22 = getelementptr inbounds nuw i8, ptr %0, i64 120
  %23 = load i32, ptr %22, align 8
  %24 = icmp ult i32 %23, 1073741824
  %.mask.i = and i32 %23, -1073741824
  %25 = icmp eq i32 %.mask.i, 1073741824
  %spec.select.i = or i1 %24, %25
  br label %26

26:                                               ; preds = %_ZNK4goal4sizeEv.exit.thread, %_ZNK4goal4sizeEv.exit
  %27 = phi i1 [ false, %_ZNK4goal4sizeEv.exit ], [ %spec.select.i, %_ZNK4goal4sizeEv.exit.thread ]
  ret i1 %27
}